; Function Attrs: mustprogress uwtable
define hidden void @_ZN3smt9theory_pb13push_scope_ehEv(ptr noundef nonnull align 8 dereferenceable(968) %0) unnamed_addr #4 align 2 {
  %2 = getelementptr inbounds nuw i8, ptr %0, i64 696
  %3 = getelementptr inbounds nuw i8, ptr %0, i64 688
  %4 = load ptr, ptr %3, align 8, !tbaa !660
  %5 = icmp eq ptr %4, null
  br i1 %5, label %_ZNK6vectorIjLb0EjE4sizeEv.exit, label %6

6:                                                ; preds = %1
  %7 = getelementptr inbounds i8, ptr %4, i64 -4
  %8 = load i32, ptr %7, align 4, !tbaa !9
  br label %_ZNK6vectorIjLb0EjE4sizeEv.exit

_ZNK6vectorIjLb0EjE4sizeEv.exit:                  ; preds = %1, %6
  %.0.i = phi i32 [ %8, %6 ], [ 0, %1 ]
  %9 = load ptr, ptr %2, align 8, !tbaa !660
  %10 = icmp eq ptr %9, null
  br i1 %10, label %17, label %11

11:                                               ; preds = %_ZNK6vectorIjLb0EjE4sizeEv.exit
  %12 = getelementptr inbounds i8, ptr %9, i64 -4
  %13 = load i32, ptr %12, align 4, !tbaa !9
  %14 = getelementptr inbounds i8, ptr %9, i64 -8
  %15 = load i32, ptr %14, align 4, !tbaa !9
  %16 = icmp eq i32 %13, %15
  br i1 %16, label %17, label %_ZN6vectorIjLb0EjE9push_backEOj.exit

17:                                               ; preds = %11, %_ZNK6vectorIjLb0EjE4sizeEv.exit
  tail call void @_ZN6vectorIjLb0EjE13expand_vectorEv(ptr noundef nonnull align 8 dereferenceable(8) %2)
  %.pre.i = load ptr, ptr %2, align 8, !tbaa !660
  %.phi.trans.insert.i = getelementptr inbounds i8, ptr %.pre.i, i64 -4
  %.pre2.i = load i32, ptr %.phi.trans.insert.i, align 4, !tbaa !9
  br label %_ZN6vectorIjLb0EjE9push_backEOj.exit

_ZN6vectorIjLb0EjE9push_backEOj.exit:             ; preds = %11, %17
  %18 = phi i32 [ %.pre2.i, %17 ], [ %13, %11 ]
  %19 = phi ptr [ %.pre.i, %17 ], [ %9, %11 ]
  %20 = getelementptr inbounds i8, ptr %19, i64 -4
  %21 = zext i32 %18 to i64
  %22 = getelementptr inbounds nuw i32, ptr %19, i64 %21
  store i32 %.0.i, ptr %22, align 4, !tbaa !9
  %23 = add i32 %18, 1
  store i32 %23, ptr %20, align 4, !tbaa !9
  %24 = getelementptr inbounds nuw i8, ptr %0, i64 824
  %25 = getelementptr inbounds nuw i8, ptr %0, i64 816
  %26 = load ptr, ptr %25, align 8, !tbaa !660
  %27 = icmp eq ptr %26, null
  br i1 %27, label %_ZNK6vectorIjLb0EjE4sizeEv.exit2, label %28

28:                                               ; preds = %_ZN6vectorIjLb0EjE9push_backEOj.exit
  %29 = getelementptr inbounds i8, ptr %26, i64 -4
  %30 = load i32, ptr %29, align 4, !tbaa !9
  br label %_ZNK6vectorIjLb0EjE4sizeEv.exit2

_ZNK6vectorIjLb0EjE4sizeEv.exit2:                 ; preds = %_ZN6vectorIjLb0EjE9push_backEOj.exit, %28
  %.0.i1 = phi i32 [ %30, %28 ], [ 0, %_ZN6vectorIjLb0EjE9push_backEOj.exit ]
  %31 = load ptr, ptr %24, align 8, !tbaa !660
  %32 = icmp eq ptr %31, null
  br i1 %32, label %39, label %33

33:                                               ; preds = %_ZNK6vectorIjLb0EjE4sizeEv.exit2
  %34 = getelementptr inbounds i8, ptr %31, i64 -4
  %35 = load i32, ptr %34, align 4, !tbaa !9
  %36 = getelementptr inbounds i8, ptr %31, i64 -8
  %37 = load i32, ptr %36, align 4, !tbaa !9
  %38 = icmp eq i32 %35, %37
  br i1 %38, label %39, label %_ZN6vectorIjLb0EjE9push_backEOj.exit6

39:                                               ; preds = %33, %_ZNK6vectorIjLb0EjE4sizeEv.exit2
  tail call void @_ZN6vectorIjLb0EjE13expand_vectorEv(ptr noundef nonnull align 8 dereferenceable(8) %24)
  %.pre.i3 = load ptr, ptr %24, align 8, !tbaa !660
  %.phi.trans.insert.i4 = getelementptr inbounds i8, ptr %.pre.i3, i64 -4
  %.pre2.i5 = load i32, ptr %.phi.trans.insert.i4, align 4, !tbaa !9
  br label %_ZN6vectorIjLb0EjE9push_backEOj.exit6

_ZN6vectorIjLb0EjE9push_backEOj.exit6:            ; preds = %33, %39
  %40 = phi i32 [ %.pre2.i5, %39 ], [ %35, %33 ]
  %41 = phi ptr [ %.pre.i3, %39 ], [ %31, %33 ]
  %42 = getelementptr inbounds i8, ptr %41, i64 -4
  %43 = zext i32 %40 to i64
  %44 = getelementptr inbounds nuw i32, ptr %41, i64 %43
  store i32 %.0.i1, ptr %44, align 4, !tbaa !9
  %45 = add i32 %40, 1
  store i32 %45, ptr %42, align 4, !tbaa !9
  ret void
}